; ModuleID = 'source-C-CXX/27/481.c'
source_filename = "source-C-CXX/27/481.c"
target datalayout = "e-m:e-p270:32:32-p271:32:32-p272:64:64-i64:64-f80:128-n8:16:32:64-S128"
target triple = "x86_64-pc-linux-gnu"

%struct._IO_FILE = type { i32, i8*, i8*, i8*, i8*, i8*, i8*, i8*, i8*, i8*, i8*, i8*, %struct._IO_marker*, %struct._IO_FILE*, i32, i32, i64, i16, i8, [1 x i8], i8*, i64, %struct._IO_codecvt*, %struct._IO_wide_data*, %struct._IO_FILE*, i8*, i64, i32, [20 x i8] }
%struct._IO_marker = type opaque
%struct._IO_codecvt = type opaque
%struct._IO_wide_data = type opaque

@.str = private unnamed_addr constant [3 x i8] c"%d\00", align 1
@stdout = external local_unnamed_addr global %struct._IO_FILE*, align 8

; Function Attrs: nofree nounwind sspstrong uwtable
define dso_local void @getword(i8* nocapture readonly %0, i32* nocapture %1) local_unnamed_addr #0 {
  %3 = tail call i64 @strlen(i8* noundef nonnull dereferenceable(1) %0) #7
  %4 = trunc i64 %3 to i32
  %5 = icmp sgt i32 %4, 0
  br i1 %5, label %6, label %29

6:                                                ; preds = %2
  %7 = and i64 %3, 4294967295
  br label %8

8:                                                ; preds = %6, %25
  %9 = phi i64 [ 0, %6 ], [ %26, %25 ]
  %10 = phi i32* [ %1, %6 ], [ %27, %25 ]
  %11 = getelementptr inbounds i8, i8* %0, i64 %9
  %12 = load i8, i8* %11, align 1, !tbaa !5
  %13 = icmp eq i8 %12, 32
  br i1 %13, label %14, label %16

14:                                               ; preds = %8
  %15 = add nuw nsw i64 %9, 1
  br label %25

16:                                               ; preds = %8
  %17 = load i32, i32* %10, align 4, !tbaa !8
  %18 = add nsw i32 %17, 1
  store i32 %18, i32* %10, align 4, !tbaa !8
  %19 = add nuw nsw i64 %9, 1
  %20 = getelementptr inbounds i8, i8* %0, i64 %19
  %21 = load i8, i8* %20, align 1, !tbaa !5
  %22 = icmp eq i8 %21, 32
  %23 = zext i1 %22 to i64
  %24 = getelementptr i32, i32* %10, i64 %23
  br label %25

25:                                               ; preds = %14, %16
  %26 = phi i64 [ %15, %14 ], [ %19, %16 ]
  %27 = phi i32* [ %10, %14 ], [ %24, %16 ]
  %28 = icmp eq i64 %26, %7
  br i1 %28, label %29, label %8, !llvm.loop !10

29:                                               ; preds = %25, %2
  ret void
}

; Function Attrs: argmemonly mustprogress nofree nosync nounwind willreturn
declare void @llvm.lifetime.start.p0i8(i64 immarg, i8* nocapture) #1

; Function Attrs: argmemonly mustprogress nofree nounwind readonly willreturn
declare i64 @strlen(i8* nocapture) local_unnamed_addr #2

; Function Attrs: argmemonly mustprogress nofree nosync nounwind willreturn
declare void @llvm.lifetime.end.p0i8(i64 immarg, i8* nocapture) #1

; Function Attrs: nounwind sspstrong uwtable
define dso_local void @main() local_unnamed_addr #3 {
  %1 = alloca [3001 x i8], align 16
  %2 = alloca [300 x i32], align 16
  %3 = getelementptr inbounds [3001 x i8], [3001 x i8]* %1, i64 0, i64 0
  call void @llvm.lifetime.start.p0i8(i64 3001, i8* nonnull %3) #8
  %4 = bitcast [300 x i32]* %2 to i8*
  call void @llvm.lifetime.start.p0i8(i64 1200, i8* nonnull %4) #8
  call void @llvm.memset.p0i8.i64(i8* noundef nonnull align 16 dereferenceable(1200) %4, i8 0, i64 1200, i1 false)
  %5 = call i32 (i8*, ...) bitcast (i32 (...)* @gets to i32 (i8*, ...)*)(i8* nonnull %3) #8
  %6 = call i64 @strlen(i8* noundef nonnull dereferenceable(1) %3) #7
  %7 = trunc i64 %6 to i32
  %8 = icmp sgt i32 %7, 0
  br i1 %8, label %9, label %51

9:                                                ; preds = %0
  %10 = getelementptr inbounds [300 x i32], [300 x i32]* %2, i64 0, i64 0
  %11 = and i64 %6, 4294967295
  br label %12

12:                                               ; preds = %29, %9
  %13 = phi i64 [ 0, %9 ], [ %30, %29 ]
  %14 = phi i32* [ %10, %9 ], [ %31, %29 ]
  %15 = getelementptr inbounds [3001 x i8], [3001 x i8]* %1, i64 0, i64 %13
  %16 = load i8, i8* %15, align 1, !tbaa !5
  %17 = icmp eq i8 %16, 32
  br i1 %17, label %18, label %20

18:                                               ; preds = %12
  %19 = add nuw nsw i64 %13, 1
  br label %29

20:                                               ; preds = %12
  %21 = load i32, i32* %14, align 4, !tbaa !8
  %22 = add nsw i32 %21, 1
  store i32 %22, i32* %14, align 4, !tbaa !8
  %23 = add nuw nsw i64 %13, 1
  %24 = getelementptr inbounds [3001 x i8], [3001 x i8]* %1, i64 0, i64 %23
  %25 = load i8, i8* %24, align 1, !tbaa !5
  %26 = icmp eq i8 %25, 32
  %27 = zext i1 %26 to i64
  %28 = getelementptr i32, i32* %14, i64 %27
  br label %29

29:                                               ; preds = %20, %18
  %30 = phi i64 [ %19, %18 ], [ %23, %20 ]
  %31 = phi i32* [ %14, %18 ], [ %28, %20 ]
  %32 = icmp eq i64 %30, %11
  br i1 %32, label %33, label %12, !llvm.loop !10

33:                                               ; preds = %29
  %34 = load i32, i32* %10, align 16, !tbaa !8
  %35 = icmp eq i32 %34, 0
  br i1 %35, label %51, label %36

36:                                               ; preds = %33
  %37 = call i32 (i8*, ...) @printf(i8* nonnull dereferenceable(1) getelementptr inbounds ([3 x i8], [3 x i8]* @.str, i64 0, i64 0), i32 %34)
  %38 = getelementptr inbounds [300 x i32], [300 x i32]* %2, i64 0, i64 1
  %39 = load i32, i32* %38, align 4, !tbaa !8
  %40 = icmp eq i32 %39, 0
  br i1 %40, label %51, label %41

41:                                               ; preds = %36, %41
  %42 = phi i32 [ %49, %41 ], [ %39, %36 ]
  %43 = phi i64 [ %47, %41 ], [ 1, %36 ]
  %44 = load %struct._IO_FILE*, %struct._IO_FILE** @stdout, align 8, !tbaa !12
  %45 = call i32 @putc(i32 44, %struct._IO_FILE* %44) #8
  %46 = call i32 (i8*, ...) @printf(i8* nonnull dereferenceable(1) getelementptr inbounds ([3 x i8], [3 x i8]* @.str, i64 0, i64 0), i32 %42)
  %47 = add nuw i64 %43, 1
  %48 = getelementptr inbounds [300 x i32], [300 x i32]* %2, i64 0, i64 %47
  %49 = load i32, i32* %48, align 4, !tbaa !8
  %50 = icmp eq i32 %49, 0
  br i1 %50, label %51, label %41

51:                                               ; preds = %41, %36, %0, %33
  call void @llvm.lifetime.end.p0i8(i64 1200, i8* nonnull %4) #8
  call void @llvm.lifetime.end.p0i8(i64 3001, i8* nonnull %3) #8
  ret void
}

; Function Attrs: argmemonly mustprogress nofree nounwind willreturn writeonly
declare void @llvm.memset.p0i8.i64(i8* nocapture writeonly, i8, i64, i1 immarg) #4

declare i32 @gets(...) local_unnamed_addr #5

; Function Attrs: nofree nounwind
declare noundef i32 @printf(i8* nocapture noundef readonly, ...) local_unnamed_addr #6

; Function Attrs: nofree nounwind
declare noundef i32 @putc(i32 noundef, %struct._IO_FILE* nocapture noundef) local_unnamed_addr #6


!llvm.module.flags = !{!0, !1, !2, !3}
!llvm.ident = !{!4}

!0 = !{i32 1, !"wchar_size", i32 4}
!1 = !{i32 7, !"PIC Level", i32 2}
!2 = !{i32 7, !"PIE Level", i32 2}
!3 = !{i32 7, !"uwtable", i32 1}
!4 = !{!"clang version 13.0.0"}
!5 = !{!6, !6, i64 0}
!6 = !{!"omnipotent char", !7, i64 0}
!7 = !{!"Simple C/C++ TBAA"}
!8 = !{!9, !9, i64 0}
!9 = !{!"int", !6, i64 0}
!10 = distinct !{!10, !11}
!11 = !{!"llvm.loop.mustprogress"}
!12 = !{!13, !13, i64 0}
!13 = !{!"any pointer", !6, i64 0}
